; Function Attrs: nounwind uwtable
define void @glfwSetWindowSizeLimits(ptr noundef %0, i32 noundef %1, i32 noundef %2, i32 noundef %3, i32 noundef %4) local_unnamed_addr #0 {
  %6 = load i32, ptr @_glfw, align 8, !tbaa !138
  %.not = icmp eq i32 %6, 0
  br i1 %.not, label %7, label %8

7:                                                ; preds = %5
  tail call void (i32, ptr, ...) @_glfwInputError(i32 noundef 65537, ptr noundef null) #7
  br label %33

8:                                                ; preds = %5
  %9 = icmp eq i32 %1, -1
  %10 = icmp eq i32 %2, -1
  %or.cond.not48 = or i1 %9, %10
  %11 = or i32 %2, %1
  %or.cond3.not = icmp sgt i32 %11, -1
  %or.cond43 = or i1 %or.cond.not48, %or.cond3.not
  br i1 %or.cond43, label %13, label %12

12:                                               ; preds = %8
  tail call void (i32, ptr, ...) @_glfwInputError(i32 noundef 65540, ptr noundef nonnull @.str.5, i32 noundef %1, i32 noundef %2) #7
  br label %33

13:                                               ; preds = %8
  %14 = icmp ne i32 %3, -1
  %15 = icmp ne i32 %4, -1
  %or.cond5 = and i1 %14, %15
  br i1 %or.cond5, label %16, label %21

16:                                               ; preds = %13
  %17 = or i32 %4, %3
  %or.cond7.not = icmp slt i32 %17, 0
  %18 = icmp slt i32 %3, %1
  %or.cond44 = or i1 %18, %or.cond7.not
  %19 = icmp slt i32 %4, %2
  %or.cond45 = or i1 %19, %or.cond44
  br i1 %or.cond45, label %20, label %21

20:                                               ; preds = %16
  tail call void (i32, ptr, ...) @_glfwInputError(i32 noundef 65540, ptr noundef nonnull @.str.6, i32 noundef %3, i32 noundef %4) #7
  br label %33

21:                                               ; preds = %16, %13
  %22 = getelementptr inbounds nuw i8, ptr %0, i64 104
  store i32 %1, ptr %22, align 8, !tbaa !232
  %23 = getelementptr inbounds nuw i8, ptr %0, i64 108
  store i32 %2, ptr %23, align 4, !tbaa !233
  %24 = getelementptr inbounds nuw i8, ptr %0, i64 112
  store i32 %3, ptr %24, align 8, !tbaa !234
  %25 = getelementptr inbounds nuw i8, ptr %0, i64 116
  store i32 %4, ptr %25, align 4, !tbaa !235
  %26 = getelementptr inbounds nuw i8, ptr %0, i64 80
  %27 = load ptr, ptr %26, align 8, !tbaa !137
  %.not41 = icmp eq ptr %27, null
  br i1 %.not41, label %28, label %33

28:                                               ; preds = %21
  %29 = getelementptr inbounds nuw i8, ptr %0, i64 8
  %30 = load i32, ptr %29, align 8, !tbaa !163
  %.not42 = icmp eq i32 %30, 0
  br i1 %.not42, label %33, label %31

31:                                               ; preds = %28
  %32 = load ptr, ptr getelementptr inbounds nuw (i8, ptr @_glfw, i64 336), align 8, !tbaa !236
  tail call void %32(ptr noundef nonnull %0, i32 noundef %1, i32 noundef %2, i32 noundef %3, i32 noundef %4) #7
  br label %33

33:                                               ; preds = %21, %28, %31, %20, %12, %7
  ret void
}